(dp0
S'-[X '
p1
(dp2
S'X'
p3
F1.0
ssS'XoS '
p4
(dp5
S'-'
p6
F1.0
ssS'Xo- '
p7
(dp8
S'E'
p9
F0.05555555555555555
sg6
F0.3333333333333333
sS'o'
p10
F0.6111111111111112
ssS'?-S '
p11
(dp12
g6
F1.0
ssS'XEX '
p13
(dp14
g3
F1.0
ssS'-o- '
p15
(dp16
g3
F0.00909090909090909
sg6
F0.4818181818181818
sg10
F0.509090909090909
ssS'<E- '
p17
(dp18
g6
F1.0
ssS'-oo '
p19
(dp20
g6
F1.0
ssS'X-- '
p21
(dp22
g3
F0.03396928804094928
sS'S'
p23
F0.00046533271288971617
sg9
F0.051186598417868774
sg6
F0.9055374592833876
sg10
F0.008841321544904607
ssS'SSS '
p24
(dp25
g23
F1.0
ssS'-SS '
p26
(dp27
g23
F0.8607594936708861
sg6
F0.13924050632911392
ssS'-XX '
p28
(dp29
g3
F1.0
ssS'X---'
p30
(dp31
g6
F1.0
ssS'SEo '
p32
(dp33
g6
F1.0
ssS'->- '
p34
(dp35
S'<'
p36
F1.0
ssS'XB- '
p37
(dp38
g6
F1.0
ssS'E-Q '
p39
(dp40
g6
F1.0
ssS'[>- '
p41
(dp42
g36
F1.0
ssS'S[- '
p43
(dp44
g6
F1.0
ssS'-S] '
p45
(dp46
g3
F1.0
ssS'--] '
p47
(dp48
g3
F1.0
ssS'X--S'
p49
(dp50
g6
F1.0
ssS'X]< '
p51
(dp52
S'['
p53
F1.0
ssS'-?S '
p54
(dp55
g6
F1.0
ssS'S - '
p56
(dp57
g23
F0.3333333333333333
sg6
F0.6666666666666666
ssS'S-- '
p58
(dp59
g6
F0.9641638225255973
sg23
F0.01877133105802048
sg9
F0.015358361774744027
sg10
F0.0017064846416382253
ssS'>-- '
p60
(dp61
g6
F0.07407407407407407
sg9
F0.9259259259259259
ssS'Xb- '
p62
(dp63
g6
F1.0
ssS'X S '
p64
(dp65
g23
F1.0
ssS'XX] '
p66
(dp67
S']'
p68
F1.0
ssS'X-o '
p69
(dp70
g6
F0.5
sg9
F0.5
ssS']-E '
p71
(dp72
S'>'
p73
F1.0
ssS']<E '
p74
(dp75
g73
F1.0
ssS'][> '
p76
(dp77
g68
F1.0
ssS'[]< '
p78
(dp79
g53
F1.0
ssS'X-< '
p80
(dp81
g6
F1.0
ssS'SE- '
p82
(dp83
g6
F0.8888888888888888
sg9
F0.1111111111111111
ssS'-- -'
p84
(dp85
g6
F1.0
ssS'-X[ '
p86
(dp87
g3
F1.0
ssS'X<- '
p88
(dp89
g3
F1.0
ssS'-b- '
p90
(dp91
g6
F1.0
ssS']-] '
p92
(dp93
g68
F1.0
ssS'--  '
p94
(dp95
g6
F1.0
ssS'X-X '
p96
(dp97
g3
F0.9720670391061452
sg23
F0.00558659217877095
sg6
F0.0223463687150838
ssS'-B- '
p98
(dp99
g6
F1.0
ssS'o-- '
p100
(dp101
g6
F1.0
ssS'-SE '
p102
(dp103
S'Q'
p104
F0.14285714285714285
sg23
F0.8571428571428571
ssS'--E '
p105
(dp106
g6
F0.75
sg9
F0.1111111111111111
sg73
F0.1388888888888889
ssS']S] '
p107
(dp108
g68
F1.0
ssS'X[- '
p109
(dp110
g3
F0.014925373134328358
sg6
F0.9850746268656716
ssS'-So '
p111
(dp112
g23
F0.9375
sS'?'
p113
F0.0625
ssS'--> '
p114
(dp115
g6
F1.0
ssS'>S- '
p116
(dp117
g9
F1.0
ssS'][E '
p118
(dp119
g73
F1.0
ssS'- - '
p120
(dp121
g3
F0.006329113924050633
sg23
F0.006329113924050633
sg6
F0.9873417721518988
ssS']-- '
p122
(dp123
g73
F1.0
ssS'-X- '
p124
(dp125
g3
F0.5399568034557235
sg23
F0.004319654427645789
sg6
F0.4557235421166307
ssS'X[X '
p126
(dp127
g3
F1.0
ssS'XE] '
p128
(dp129
g68
F1.0
ssS'XSS '
p130
(dp131
g23
F1.0
ssS'XX> '
p132
(dp133
g68
F1.0
ssS'--B '
p134
(dp135
S'b'
p136
F1.0
ssS'X-B '
p137
(dp138
g136
F1.0
ssS'<-- '
p139
(dp140
g6
F1.0
ssS'XXX '
p141
(dp142
g3
F0.9977011494252873
sg6
F0.0022988505747126436
ssS'Sb- '
p143
(dp144
g6
F1.0
ssS'XXE '
p145
(dp146
g3
F1.0
ssS'-X] '
p147
(dp148
g3
F1.0
ssS'-E- '
p149
(dp150
g6
F0.9523809523809523
sg9
F0.047619047619047616
ssS'--? '
p151
(dp152
g23
F0.037037037037037035
sg6
F0.9629629629629629
ssS'So- '
p153
(dp154
g10
F1.0
ssS'-[S '
p155
(dp156
g6
F1.0
ssS'XX- '
p157
(dp158
g3
F0.5047619047619047
sg6
F0.47619047619047616
sg9
F0.01904761904761905
ssS'Q-- '
p159
(dp160
g6
F0.9857142857142858
sg9
F0.014285714285714285
ssS'X][ '
p161
(dp162
g53
F1.0
ssS'o-X '
p163
(dp164
g6
F1.0
ssS'oX- '
p165
(dp166
g3
F1.0
ssS'--X '
p167
(dp168
g3
F0.03712871287128713
sg6
F0.9603960396039604
sg10
F0.0024752475247524753
ssS'S?- '
p169
(dp170
g6
F0.5
sg10
F0.25
sg113
F0.25
ssS'[][ '
p171
(dp172
g53
F1.0
ssS'X-E '
p173
(dp174
g6
F1.0
ssS'X - '
p175
(dp176
g6
F1.0
ssS'EX- '
p177
(dp178
g6
F1.0
ssS'--< '
p179
(dp180
g6
F1.0
ssS'--S '
p181
(dp182
g6
F0.9740932642487047
sg23
F0.022452504317789293
sg9
F0.0034542314335060447
ssS'S-S '
p183
(dp184
g3
F0.0196078431372549
sg23
F0.9411764705882353
sg6
F0.0392156862745098
ssS'-?- '
p185
(dp186
g9
F0.043478260869565216
sg6
F0.43478260869565216
sg104
F0.043478260869565216
sg23
F0.391304347826087
sg3
F0.043478260869565216
sg113
F0.043478260869565216
ssS'-XE '
p187
(dp188
g3
F0.9411764705882353
sg6
F0.058823529411764705
ssS'---S'
p189
(dp190
g6
F1.0
ssS'?o- '
p191
(dp192
g113
F0.5
sg10
F0.5
ssS'X-  '
p193
(dp194
g6
F1.0
ssS'ES- '
p195
(dp196
g23
F0.5
sg6
F0.5
ssS'----'
p197
(dp198
g6
F1.0
ssS'X-S '
p199
(dp200
g3
F0.23076923076923078
sg23
F0.3076923076923077
sg6
F0.46153846153846156
ssS'- S '
p201
(dp202
g6
F1.0
ssS'-S- '
p203
(dp204
g104
F0.011560693641618497
sg6
F0.24855491329479767
sg23
F0.7186897880539499
sg9
F0.0019267822736030828
sg113
F0.019267822736030827
ssS'-[- '
p205
(dp206
g23
F0.010416666666666666
sg6
F0.9895833333333334
ssS']XE '
p207
(dp208
g73
F1.0
ssS'--- '
p209
(dp210
g9
F0.0008740594360416509
sg6
F0.9886372273314585
sg10
F0.0018241240404347496
sg104
F0.0010640723569202706
sg23
F0.0035722429125180514
sg3
F0.0036102454966937753
sg113
F0.00041802842593296346
ssS'- X '
p211
(dp212
g6
F1.0
ssS'-<- '
p213
(dp214
g6
F1.0
ssS'X[> '
p215
(dp216
g68
F1.0
ssS'X-] '
p217
(dp218
g68
F1.0
ssS'?-- '
p219
(dp220
g6
F0.9285714285714286
sg113
F0.07142857142857142
ssS'SS- '
p221
(dp222
g23
F0.9468085106382979
sg6
F0.02127659574468085
sg10
F0.031914893617021274
ssS'X-b '
p223
(dp224
S'B'
p225
F0.75
sg6
F0.25
ssS'E-- '
p226
(dp227
g6
F0.9809885931558935
sg9
F0.015209125475285171
sg10
F0.0038022813688212928
ssS'oS- '
p228
(dp229
g6
F1.0
ssS'EQ- '
p230
(dp231
g6
F1.0
ssS'X[] '
p232
(dp233
g68
F1.0
ssS'--o '
p234
(dp235
g3
F0.031578947368421054
sg23
F0.010526315789473684
sg6
F0.9578947368421052
ssS'S-E '
p236
(dp237
g6
F1.0
ssS'SSE '
p238
(dp239
g23
F1.0
ssS'SoS '
p240
(dp241
g23
F1.0
ssS'-oX '
p242
(dp243
g10
F1.0
ssS'-   '
p244
(dp245
g6
F1.0
ssS'S-o '
p246
(dp247
g6
F1.0
ssS'>X- '
p248
(dp249
g9
F1.0
ssS'B-- '
p250
(dp251
g6
F1.0
ssS'--Q '
p252
(dp253
g6
F1.0
ssS'S S '
p254
(dp255
g23
F1.0
ssS'B-B '
p256
(dp257
g136
F1.0
ssS']X> '
p258
(dp259
g68
F1.0
ssS']X] '
p260
(dp261
g68
F1.0
ssS'XE- '
p262
(dp263
g6
F0.7943262411347518
sg9
F0.20567375886524822
ssS'-Sb '
p264
(dp265
g3
F1.0
ssS'b-- '
p266
(dp267
g225
F1.0
ssS'oo- '
p268
(dp269
g6
F1.0
ssS'XS- '
p270
(dp271
g3
F0.5
sg23
F0.375
sg10
F0.125
ssS']-> '
p272
(dp273
g68
F1.0
ssS'X-> '
p274
(dp275
g68
F0.9565217391304348
sg6
F0.043478260869565216
ssS'><- '
p276
(dp277
g9
F1.0
ssS'-?? '
p278
(dp279
g113
F1.0
ssS'-S? '
p280
(dp281
g6
F1.0
ssS'-Xo '
p282
(dp283
g3
F1.0
ssS'-Q- '
p284
(dp285
g104
F0.4927536231884058
sg23
F0.14492753623188406
sg6
F0.34782608695652173
sg113
F0.014492753623188406
ssS'E-S '
p286
(dp287
g6
F1.0
ssS'XEo '
p288
(dp289
g6
F1.0
ssS'XSX '
p290
(dp291
g3
F1.0
ss.